target datalayout = "e-m:e-p270:32:32-p271:32:32-p272:64:64-i64:64-i128:128-f80:128-n8:16:32:64-S128"
target triple = "x86_64-pc-linux-gnu"

%struct.ssl_connection_st = type { %struct.ssl_st, ptr, i32, ptr, ptr, ptr, i32, ptr, i32, i32, i32, i32, %struct.OSSL_TIME, %struct.OSSL_TIME, %struct.ossl_statem_st, i32, ptr, ptr, i64, i64, i64, %struct.ossl_quic_tls_callbacks_st, ptr, ptr, %struct.anon, ptr, ptr, ptr, i32, ptr, %struct.ssl_dane_st, ptr, ptr, ptr, ptr, i32, [64 x i8], [64 x i8], [64 x i8], [64 x i8], [64 x i8], [64 x i8], [64 x i8], [64 x i8], [64 x i8], [64 x i8], [64 x i8], [64 x i8], ptr, [64 x i8], i64, i32, i64, [32 x i8], ptr, ptr, ptr, i64, ptr, [32 x i8], i64, i32, ptr, ptr, i32, i32, ptr, ptr, ptr, ptr, ptr, i64, ptr, ptr, i64, i32, i32, i32, i64, i32, i32, i64, i64, i64, %struct.anon.1, ptr, i32, ptr, ptr, ptr, i32, ptr, ptr, ptr, i32, i32, i32, i32, ptr, i64, i32, ptr, %struct.srp_ctx_st, ptr, %struct.record_layer_st, ptr, ptr, ptr, ptr, i64, i32, i32, i32, i64, i64, i64, ptr, ptr, ptr, ptr, ptr, i64, ptr, i64, ptr, i64 }
%struct.ssl_st = type { i32, ptr, ptr, ptr, %struct.CRYPTO_REF_COUNT, ptr, %struct.crypto_ex_data_st }
%struct.CRYPTO_REF_COUNT = type { i32 }
%struct.crypto_ex_data_st = type { ptr, ptr }
%struct.OSSL_TIME = type { i64 }
%struct.ossl_statem_st = type { i32, i32, i32, i32, i32, i32, i32, i32, i32, i32, i32, i32, i32, ptr, ptr, ptr, i8 }
%struct.ossl_quic_tls_callbacks_st = type { ptr, ptr, ptr, ptr, ptr, ptr }
%struct.anon = type { i64, [32 x i8], [32 x i8], ptr, ptr, i32, i32, i32, i32, [2 x i8], i32, i32, i32, i32, %struct.anon.0, [64 x i8], i64, [64 x i8], i64, i32, i32, ptr, i64, ptr, i64, i32, i8, i8, i16, ptr, i16 }
%struct.anon.0 = type { [128 x i8], i64, [128 x i8], i64, i64, i32, ptr, ptr, [4 x ptr], [4 x i16], i64, i32, ptr, i64, ptr, i64, ptr, ptr, ptr, i32, i64, ptr, i32, ptr, i64, ptr, i64, ptr, i64, ptr, ptr, ptr, ptr, i64, i64, ptr, ptr, i32, i32, i32, i32 }
%struct.ssl_dane_st = type { ptr, ptr, ptr, ptr, ptr, i32, i32, i32, i64 }
%struct.anon.1 = type { [29 x i8], ptr, ptr, ptr, i32, ptr, i16, i32, %struct.anon.2, i32, i32, i64, ptr, i64, ptr, i64, ptr, i64, ptr, i64, ptr, i64, ptr, ptr, ptr, ptr, ptr, ptr, ptr, i64, ptr, i64, i32, i32, i32, i32, ptr, i64, i32, i8, i32, [4 x i32], i32, i8, i8, i8, i8 }
%struct.anon.2 = type { ptr, ptr, ptr, i64 }
%struct.srp_ctx_st = type { ptr, ptr, ptr, ptr, ptr, ptr, ptr, ptr, ptr, ptr, ptr, ptr, ptr, ptr, i32, i64 }
%struct.record_layer_st = type { ptr, ptr, ptr, ptr, ptr, ptr, ptr, ptr, i64, i32, i64, [4 x i8], i64, i64, i8, ptr, i32, ptr, ptr, ptr, i64, i64, i64, i64, [32 x %struct.tls_record_st] }
%struct.tls_record_st = type { ptr, i32, i8, ptr, ptr, i64, i64, i16, [8 x i8] }
%struct.ssl_method_st = type { i32, i32, i64, ptr, ptr, ptr, ptr, ptr, ptr, ptr, ptr, ptr, ptr, ptr, ptr, ptr, ptr, ptr, ptr, ptr, ptr, ptr, ptr, ptr, ptr, ptr, ptr, ptr, ptr, ptr, ptr, ptr }
%struct.ssl3_enc_method = type { ptr, ptr, ptr, ptr, ptr, i64, ptr, i64, ptr, ptr, i32, ptr, ptr, ptr }
%struct.ssl_ctx_st = type { ptr, ptr, ptr, ptr, ptr, ptr, ptr, i64, ptr, ptr, i32, %struct.OSSL_TIME, ptr, ptr, ptr, %struct.anon.4, %struct.CRYPTO_REF_COUNT, ptr, ptr, ptr, ptr, ptr, ptr, ptr, ptr, ptr, %struct.crypto_ex_data_st, ptr, ptr, ptr, ptr, ptr, ptr, ptr, i64, i32, i32, i32, i64, ptr, ptr, i32, ptr, ptr, i32, i64, [32 x i8], ptr, ptr, ptr, i32, ptr, ptr, ptr, i64, i64, i64, i64, ptr, ptr, ptr, ptr, ptr, %struct.anon.5, ptr, ptr, ptr, ptr, %struct.srp_ctx_st, %struct.dane_ctx_st, ptr, ptr, ptr, ptr, i32, i32, ptr, ptr, i64, i64, ptr, ptr, ptr, i64, ptr, ptr, i32, ptr, ptr, ptr, [14 x i32], [24 x ptr], [14 x ptr], [14 x i64], i64, ptr, ptr, ptr, i64, i64, ptr, i64, i64, i32, i32, i32, i32, ptr, i64, ptr, i64, i64, ptr, ptr }
%struct.anon.4 = type { i32, i32, i32, i32, i32, i32, i32, i32, i32, i32, i32 }
%struct.anon.5 = type { ptr, ptr, [16 x i8], ptr, ptr, ptr, ptr, ptr, i32, i8, i64, ptr, i64, ptr, i64, ptr, i64, ptr, ptr, i64, ptr, ptr, ptr, i64, ptr, ptr, ptr, ptr, [32 x i8] }
%struct.dane_ctx_st = type { ptr, ptr, i8, i64 }

@.str.2 = private unnamed_addr constant [24 x i8] c"../openssl/ssl/s3_lib.c\00", align 1
@__func__.ssl_derive = private unnamed_addr constant [11 x i8] c"ssl_derive\00", align 1
@.str.4 = private unnamed_addr constant [3 x i8] c"DH\00", align 1

; Function Attrs: nounwind uwtable
define i32 @ssl_gensecret(ptr noundef %0, ptr noundef %1, i64 noundef %2) #0 {
  %4 = alloca ptr, align 8
  %5 = alloca ptr, align 8
  %6 = alloca i64, align 8
  %7 = alloca i32, align 4
  store ptr %0, ptr %4, align 8, !tbaa !13
  store ptr %1, ptr %5, align 8, !tbaa !15
  store i64 %2, ptr %6, align 8, !tbaa !16
  call void @llvm.lifetime.start.p0(i64 4, ptr %7) #10
  store i32 0, ptr %7, align 4, !tbaa !18
  %8 = load ptr, ptr %4, align 8, !tbaa !13
  %9 = getelementptr inbounds nuw %struct.ssl_connection_st, ptr %8, i32 0, i32 0
  %10 = getelementptr inbounds nuw %struct.ssl_st, ptr %9, i32 0, i32 3
  %11 = load ptr, ptr %10, align 8, !tbaa !147
  %12 = getelementptr inbounds nuw %struct.ssl_method_st, ptr %11, i32 0, i32 28
  %13 = load ptr, ptr %12, align 8, !tbaa !148
  %14 = getelementptr inbounds nuw %struct.ssl3_enc_method, ptr %13, i32 0, i32 10
  %15 = load i32, ptr %14, align 8, !tbaa !149
  %16 = and i32 %15, 8
  %17 = icmp ne i32 %16, 0
  br i1 %17, label %59, label %18

18:                                               ; preds = %3
  %19 = load ptr, ptr %4, align 8, !tbaa !13
  %20 = getelementptr inbounds nuw %struct.ssl_connection_st, ptr %19, i32 0, i32 0
  %21 = getelementptr inbounds nuw %struct.ssl_st, ptr %20, i32 0, i32 3
  %22 = load ptr, ptr %21, align 8, !tbaa !147
  %23 = getelementptr inbounds nuw %struct.ssl_method_st, ptr %22, i32 0, i32 0
  %24 = load i32, ptr %23, align 8, !tbaa !151
  %25 = icmp sge i32 %24, 772
  br i1 %25, label %26, label %59

26:                                               ; preds = %18
  %27 = load ptr, ptr %4, align 8, !tbaa !13
  %28 = getelementptr inbounds nuw %struct.ssl_connection_st, ptr %27, i32 0, i32 0
  %29 = getelementptr inbounds nuw %struct.ssl_st, ptr %28, i32 0, i32 3
  %30 = load ptr, ptr %29, align 8, !tbaa !147
  %31 = getelementptr inbounds nuw %struct.ssl_method_st, ptr %30, i32 0, i32 0
  %32 = load i32, ptr %31, align 8, !tbaa !151
  %33 = icmp ne i32 %32, 65536
  br i1 %33, label %34, label %59

34:                                               ; preds = %26
  %35 = load ptr, ptr %4, align 8, !tbaa !13
  %36 = getelementptr inbounds nuw %struct.ssl_connection_st, ptr %35, i32 0, i32 28
  %37 = load i32, ptr %36, align 8, !tbaa !265
  %38 = icmp ne i32 %37, 0
  br i1 %38, label %46, label %39

39:                                               ; preds = %34
  %40 = load ptr, ptr %4, align 8, !tbaa !13
  %41 = load ptr, ptr %4, align 8, !tbaa !13
  %42 = call ptr @ssl_handshake_md(ptr noundef %41)
  %43 = load ptr, ptr %4, align 8, !tbaa !13
  %44 = getelementptr inbounds nuw %struct.ssl_connection_st, ptr %43, i32 0, i32 36
  %45 = call i32 @tls13_generate_secret(ptr noundef %40, ptr noundef %42, ptr noundef null, ptr noundef null, i64 noundef 0, ptr noundef %44)
  store i32 %45, ptr %7, align 4, !tbaa !18
  br label %47

46:                                               ; preds = %34
  store i32 1, ptr %7, align 4, !tbaa !18
  br label %47

47:                                               ; preds = %46, %39
  %48 = load i32, ptr %7, align 4, !tbaa !18
  %49 = icmp ne i32 %48, 0
  br i1 %49, label %50, label %56

50:                                               ; preds = %47
  %51 = load ptr, ptr %4, align 8, !tbaa !13
  %52 = load ptr, ptr %5, align 8, !tbaa !15
  %53 = load i64, ptr %6, align 8, !tbaa !16
  %54 = call i32 @tls13_generate_handshake_secret(ptr noundef %51, ptr noundef %52, i64 noundef %53)
  %55 = icmp ne i32 %54, 0
  br label %56

56:                                               ; preds = %50, %47
  %57 = phi i1 [ false, %47 ], [ %55, %50 ]
  %58 = zext i1 %57 to i32
  store i32 %58, ptr %7, align 4, !tbaa !18
  br label %64

59:                                               ; preds = %26, %18, %3
  %60 = load ptr, ptr %4, align 8, !tbaa !13
  %61 = load ptr, ptr %5, align 8, !tbaa !15
  %62 = load i64, ptr %6, align 8, !tbaa !16
  %63 = call i32 @ssl_generate_master_secret(ptr noundef %60, ptr noundef %61, i64 noundef %62, i32 noundef 0)
  store i32 %63, ptr %7, align 4, !tbaa !18
  br label %64

64:                                               ; preds = %59, %56
  %65 = load i32, ptr %7, align 4, !tbaa !18
  call void @llvm.lifetime.end.p0(i64 4, ptr %7) #10
  ret i32 %65
}

; Function Attrs: nounwind uwtable
define i32 @ssl_derive(ptr noundef %0, ptr noundef %1, ptr noundef %2, i32 noundef %3) #0 {
  %5 = alloca i32, align 4
  %6 = alloca ptr, align 8
  %7 = alloca ptr, align 8
  %8 = alloca ptr, align 8
  %9 = alloca i32, align 4
  %10 = alloca i32, align 4
  %11 = alloca ptr, align 8
  %12 = alloca i64, align 8
  %13 = alloca ptr, align 8
  %14 = alloca ptr, align 8
  %15 = alloca i32, align 4
  store ptr %0, ptr %6, align 8, !tbaa !13
  store ptr %1, ptr %7, align 8, !tbaa !87
  store ptr %2, ptr %8, align 8, !tbaa !87
  store i32 %3, ptr %9, align 4, !tbaa !18
  call void @llvm.lifetime.start.p0(i64 4, ptr %10) #10
  store i32 0, ptr %10, align 4, !tbaa !18
  call void @llvm.lifetime.start.p0(i64 8, ptr %11) #10
  store ptr null, ptr %11, align 8, !tbaa !15
  call void @llvm.lifetime.start.p0(i64 8, ptr %12) #10
  store i64 0, ptr %12, align 8, !tbaa !16
  call void @llvm.lifetime.start.p0(i64 8, ptr %13) #10
  call void @llvm.lifetime.start.p0(i64 8, ptr %14) #10
  %16 = load ptr, ptr %6, align 8, !tbaa !13
  %17 = getelementptr inbounds nuw %struct.ssl_connection_st, ptr %16, i32 0, i32 0
  %18 = getelementptr inbounds nuw %struct.ssl_st, ptr %17, i32 0, i32 1
  %19 = load ptr, ptr %18, align 8, !tbaa !240
  store ptr %19, ptr %14, align 8, !tbaa !176
  %20 = load ptr, ptr %7, align 8, !tbaa !87
  %21 = icmp eq ptr %20, null
  br i1 %21, label %25, label %22

22:                                               ; preds = %4
  %23 = load ptr, ptr %8, align 8, !tbaa !87
  %24 = icmp eq ptr %23, null
  br i1 %24, label %25, label %27

25:                                               ; preds = %22, %4
  call void @ERR_new()
  call void @ERR_set_debug(ptr noundef @.str.2, i32 noundef 5012, ptr noundef @__func__.ssl_derive)
  %26 = load ptr, ptr %6, align 8, !tbaa !13
  call void (ptr, i32, i32, ptr, ...) @ossl_statem_fatal(ptr noundef %26, i32 noundef 80, i32 noundef 786691, ptr noundef null)
  store i32 0, ptr %5, align 4
  store i32 1, ptr %15, align 4
  br label %123

27:                                               ; preds = %22
  %28 = load ptr, ptr %14, align 8, !tbaa !176
  %29 = getelementptr inbounds nuw %struct.ssl_ctx_st, ptr %28, i32 0, i32 0
  %30 = load ptr, ptr %29, align 8, !tbaa !257
  %31 = load ptr, ptr %7, align 8, !tbaa !87
  %32 = load ptr, ptr %14, align 8, !tbaa !176
  %33 = getelementptr inbounds nuw %struct.ssl_ctx_st, ptr %32, i32 0, i32 89
  %34 = load ptr, ptr %33, align 8, !tbaa !262
  %35 = call ptr @EVP_PKEY_CTX_new_from_pkey(ptr noundef %30, ptr noundef %31, ptr noundef %34)
  store ptr %35, ptr %13, align 8, !tbaa !260
  %36 = load ptr, ptr %13, align 8, !tbaa !260
  %37 = call i32 @EVP_PKEY_derive_init(ptr noundef %36)
  %38 = icmp sle i32 %37, 0
  br i1 %38, label %48, label %39

39:                                               ; preds = %27
  %40 = load ptr, ptr %13, align 8, !tbaa !260
  %41 = load ptr, ptr %8, align 8, !tbaa !87
  %42 = call i32 @EVP_PKEY_derive_set_peer(ptr noundef %40, ptr noundef %41)
  %43 = icmp sle i32 %42, 0
  br i1 %43, label %48, label %44

44:                                               ; preds = %39
  %45 = load ptr, ptr %13, align 8, !tbaa !260
  %46 = call i32 @EVP_PKEY_derive(ptr noundef %45, ptr noundef null, ptr noundef %12)
  %47 = icmp sle i32 %46, 0
  br i1 %47, label %48, label %50

48:                                               ; preds = %44, %39, %27
  call void @ERR_new()
  call void @ERR_set_debug(ptr noundef @.str.2, i32 noundef 5021, ptr noundef @__func__.ssl_derive)
  %49 = load ptr, ptr %6, align 8, !tbaa !13
  call void (ptr, i32, i32, ptr, ...) @ossl_statem_fatal(ptr noundef %49, i32 noundef 80, i32 noundef 786691, ptr noundef null)
  br label %118

50:                                               ; preds = %44
  %51 = load ptr, ptr %6, align 8, !tbaa !13
  %52 = getelementptr inbounds nuw %struct.ssl_connection_st, ptr %51, i32 0, i32 0
  %53 = getelementptr inbounds nuw %struct.ssl_st, ptr %52, i32 0, i32 3
  %54 = load ptr, ptr %53, align 8, !tbaa !147
  %55 = getelementptr inbounds nuw %struct.ssl_method_st, ptr %54, i32 0, i32 28
  %56 = load ptr, ptr %55, align 8, !tbaa !148
  %57 = getelementptr inbounds nuw %struct.ssl3_enc_method, ptr %56, i32 0, i32 10
  %58 = load i32, ptr %57, align 8, !tbaa !149
  %59 = and i32 %58, 8
  %60 = icmp ne i32 %59, 0
  br i1 %60, label %84, label %61

61:                                               ; preds = %50
  %62 = load ptr, ptr %6, align 8, !tbaa !13
  %63 = getelementptr inbounds nuw %struct.ssl_connection_st, ptr %62, i32 0, i32 0
  %64 = getelementptr inbounds nuw %struct.ssl_st, ptr %63, i32 0, i32 3
  %65 = load ptr, ptr %64, align 8, !tbaa !147
  %66 = getelementptr inbounds nuw %struct.ssl_method_st, ptr %65, i32 0, i32 0
  %67 = load i32, ptr %66, align 8, !tbaa !151
  %68 = icmp sge i32 %67, 772
  br i1 %68, label %69, label %84

69:                                               ; preds = %61
  %70 = load ptr, ptr %6, align 8, !tbaa !13
  %71 = getelementptr inbounds nuw %struct.ssl_connection_st, ptr %70, i32 0, i32 0
  %72 = getelementptr inbounds nuw %struct.ssl_st, ptr %71, i32 0, i32 3
  %73 = load ptr, ptr %72, align 8, !tbaa !147
  %74 = getelementptr inbounds nuw %struct.ssl_method_st, ptr %73, i32 0, i32 0
  %75 = load i32, ptr %74, align 8, !tbaa !151
  %76 = icmp ne i32 %75, 65536
  br i1 %76, label %77, label %84

77:                                               ; preds = %69
  %78 = load ptr, ptr %7, align 8, !tbaa !87
  %79 = call i32 @EVP_PKEY_is_a(ptr noundef %78, ptr noundef @.str.4)
  %80 = icmp ne i32 %79, 0
  br i1 %80, label %81, label %84

81:                                               ; preds = %77
  %82 = load ptr, ptr %13, align 8, !tbaa !260
  %83 = call i32 @EVP_PKEY_CTX_set_dh_pad(ptr noundef %82, i32 noundef 1)
  br label %84

84:                                               ; preds = %81, %77, %69, %61, %50
  %85 = load i64, ptr %12, align 8, !tbaa !16
  %86 = call noalias ptr @CRYPTO_malloc(i64 noundef %85, ptr noundef @.str.2, i32 noundef 5028)
  store ptr %86, ptr %11, align 8, !tbaa !15
  %87 = load ptr, ptr %11, align 8, !tbaa !15
  %88 = icmp eq ptr %87, null
  br i1 %88, label %89, label %91

89:                                               ; preds = %84
  call void @ERR_new()
  call void @ERR_set_debug(ptr noundef @.str.2, i32 noundef 5030, ptr noundef @__func__.ssl_derive)
  %90 = load ptr, ptr %6, align 8, !tbaa !13
  call void (ptr, i32, i32, ptr, ...) @ossl_statem_fatal(ptr noundef %90, i32 noundef 80, i32 noundef 524303, ptr noundef null)
  br label %118

91:                                               ; preds = %84
  %92 = load ptr, ptr %13, align 8, !tbaa !260
  %93 = load ptr, ptr %11, align 8, !tbaa !15
  %94 = call i32 @EVP_PKEY_derive(ptr noundef %92, ptr noundef %93, ptr noundef %12)
  %95 = icmp sle i32 %94, 0
  br i1 %95, label %96, label %98

96:                                               ; preds = %91
  call void @ERR_new()
  call void @ERR_set_debug(ptr noundef @.str.2, i32 noundef 5035, ptr noundef @__func__.ssl_derive)
  %97 = load ptr, ptr %6, align 8, !tbaa !13
  call void (ptr, i32, i32, ptr, ...) @ossl_statem_fatal(ptr noundef %97, i32 noundef 80, i32 noundef 786691, ptr noundef null)
  br label %118

98:                                               ; preds = %91
  %99 = load i32, ptr %9, align 4, !tbaa !18
  %100 = icmp ne i32 %99, 0
  br i1 %100, label %101, label %106

101:                                              ; preds = %98
  %102 = load ptr, ptr %6, align 8, !tbaa !13
  %103 = load ptr, ptr %11, align 8, !tbaa !15
  %104 = load i64, ptr %12, align 8, !tbaa !16
  %105 = call i32 @ssl_gensecret(ptr noundef %102, ptr noundef %103, i64 noundef %104)
  store i32 %105, ptr %10, align 4, !tbaa !18
  br label %117

106:                                              ; preds = %98
  %107 = load ptr, ptr %11, align 8, !tbaa !15
  %108 = load ptr, ptr %6, align 8, !tbaa !13
  %109 = getelementptr inbounds nuw %struct.ssl_connection_st, ptr %108, i32 0, i32 24
  %110 = getelementptr inbounds nuw %struct.anon, ptr %109, i32 0, i32 14
  %111 = getelementptr inbounds nuw %struct.anon.0, ptr %110, i32 0, i32 25
  store ptr %107, ptr %111, align 8, !tbaa !96
  %112 = load i64, ptr %12, align 8, !tbaa !16
  %113 = load ptr, ptr %6, align 8, !tbaa !13
  %114 = getelementptr inbounds nuw %struct.ssl_connection_st, ptr %113, i32 0, i32 24
  %115 = getelementptr inbounds nuw %struct.anon, ptr %114, i32 0, i32 14
  %116 = getelementptr inbounds nuw %struct.anon.0, ptr %115, i32 0, i32 26
  store i64 %112, ptr %116, align 8, !tbaa !97
  store ptr null, ptr %11, align 8, !tbaa !15
  store i32 1, ptr %10, align 4, !tbaa !18
  br label %117

117:                                              ; preds = %106, %101
  br label %118

118:                                              ; preds = %117, %96, %89, %48
  %119 = load ptr, ptr %11, align 8, !tbaa !15
  %120 = load i64, ptr %12, align 8, !tbaa !16
  call void @CRYPTO_clear_free(ptr noundef %119, i64 noundef %120, ptr noundef @.str.2, i32 noundef 5051)
  %121 = load ptr, ptr %13, align 8, !tbaa !260
  call void @EVP_PKEY_CTX_free(ptr noundef %121)
  %122 = load i32, ptr %10, align 4, !tbaa !18
  store i32 %122, ptr %5, align 4
  store i32 1, ptr %15, align 4
  br label %123

123:                                              ; preds = %118, %25
  call void @llvm.lifetime.end.p0(i64 8, ptr %14) #10
  call void @llvm.lifetime.end.p0(i64 8, ptr %13) #10
  call void @llvm.lifetime.end.p0(i64 8, ptr %12) #10
  call void @llvm.lifetime.end.p0(i64 8, ptr %11) #10
  call void @llvm.lifetime.end.p0(i64 4, ptr %10) #10
  %124 = load i32, ptr %5, align 4
  ret i32 %124
}