; Function Attrs: nounwind uwtable
define range(i32 0, 2) i32 @ssl_derive(ptr noundef %0, ptr noundef %1, ptr noundef %2, i32 noundef %3) local_unnamed_addr #4 {
  %5 = alloca i64, align 8
  call void @llvm.lifetime.start.p0(i64 8, ptr nonnull %5) #18
  store i64 0, ptr %5, align 8, !tbaa !198
  %6 = icmp eq ptr %1, null
  %7 = icmp eq ptr %2, null
  %or.cond = or i1 %6, %7
  br i1 %or.cond, label %8, label %9

8:                                                ; preds = %4
  tail call void @ERR_new() #18
  tail call void @ERR_set_debug(ptr noundef nonnull @.str.2, i32 noundef 5012, ptr noundef nonnull @__func__.ssl_derive) #18
  tail call void (ptr, i32, i32, ptr, ...) @ossl_statem_fatal(ptr noundef %0, i32 noundef 80, i32 noundef 786691, ptr noundef null) #18
  br label %79

9:                                                ; preds = %4
  %10 = getelementptr inbounds nuw i8, ptr %0, i64 8
  %11 = load ptr, ptr %10, align 8, !tbaa !222
  %12 = load ptr, ptr %11, align 8, !tbaa !235
  %13 = getelementptr inbounds nuw i8, ptr %11, i64 1152
  %14 = load ptr, ptr %13, align 8, !tbaa !239
  %15 = tail call ptr @EVP_PKEY_CTX_new_from_pkey(ptr noundef %12, ptr noundef nonnull %1, ptr noundef %14) #18
  %16 = tail call i32 @EVP_PKEY_derive_init(ptr noundef %15) #18
  %17 = icmp slt i32 %16, 1
  br i1 %17, label %24, label %18

18:                                               ; preds = %9
  %19 = tail call i32 @EVP_PKEY_derive_set_peer(ptr noundef %15, ptr noundef nonnull %2) #18
  %20 = icmp slt i32 %19, 1
  br i1 %20, label %24, label %21

21:                                               ; preds = %18
  %22 = call i32 @EVP_PKEY_derive(ptr noundef %15, ptr noundef null, ptr noundef nonnull %5) #18
  %23 = icmp slt i32 %22, 1
  br i1 %23, label %24, label %25

24:                                               ; preds = %21, %18, %9
  call void @ERR_new() #18
  call void @ERR_set_debug(ptr noundef nonnull @.str.2, i32 noundef 5021, ptr noundef nonnull @__func__.ssl_derive) #18
  call void (ptr, i32, i32, ptr, ...) @ossl_statem_fatal(ptr noundef nonnull %0, i32 noundef 80, i32 noundef 786691, ptr noundef null) #18
  br label %ssl_gensecret.exit

25:                                               ; preds = %21
  %26 = getelementptr inbounds nuw i8, ptr %0, i64 24
  %27 = load ptr, ptr %26, align 8, !tbaa !133
  %28 = getelementptr inbounds nuw i8, ptr %27, i64 216
  %29 = load ptr, ptr %28, align 8, !tbaa !134
  %30 = getelementptr inbounds nuw i8, ptr %29, i64 80
  %31 = load i32, ptr %30, align 8, !tbaa !135
  %32 = and i32 %31, 8
  %.not = icmp eq i32 %32, 0
  br i1 %.not, label %33, label %40

33:                                               ; preds = %25
  %34 = load i32, ptr %27, align 8, !tbaa !137
  %35 = icmp slt i32 %34, 772
  %.not38 = icmp eq i32 %34, 65536
  %or.cond41 = or i1 %35, %.not38
  br i1 %or.cond41, label %40, label %36

36:                                               ; preds = %33
  %37 = call i32 @EVP_PKEY_is_a(ptr noundef nonnull %1, ptr noundef nonnull @.str.4) #18
  %.not39 = icmp eq i32 %37, 0
  br i1 %.not39, label %40, label %38

38:                                               ; preds = %36
  %39 = call i32 @EVP_PKEY_CTX_set_dh_pad(ptr noundef %15, i32 noundef 1) #18
  br label %40

40:                                               ; preds = %38, %36, %33, %25
  %41 = load i64, ptr %5, align 8, !tbaa !198
  %42 = call noalias ptr @CRYPTO_malloc(i64 noundef %41, ptr noundef nonnull @.str.2, i32 noundef 5028) #18
  %43 = icmp eq ptr %42, null
  br i1 %43, label %44, label %45

44:                                               ; preds = %40
  call void @ERR_new() #18
  call void @ERR_set_debug(ptr noundef nonnull @.str.2, i32 noundef 5030, ptr noundef nonnull @__func__.ssl_derive) #18
  call void (ptr, i32, i32, ptr, ...) @ossl_statem_fatal(ptr noundef nonnull %0, i32 noundef 80, i32 noundef 524303, ptr noundef null) #18
  br label %ssl_gensecret.exit

45:                                               ; preds = %40
  %46 = call i32 @EVP_PKEY_derive(ptr noundef %15, ptr noundef nonnull %42, ptr noundef nonnull %5) #18
  %47 = icmp slt i32 %46, 1
  br i1 %47, label %48, label %49

48:                                               ; preds = %45
  call void @ERR_new() #18
  call void @ERR_set_debug(ptr noundef nonnull @.str.2, i32 noundef 5035, ptr noundef nonnull @__func__.ssl_derive) #18
  call void (ptr, i32, i32, ptr, ...) @ossl_statem_fatal(ptr noundef nonnull %0, i32 noundef 80, i32 noundef 786691, ptr noundef null) #18
  br label %ssl_gensecret.exit

49:                                               ; preds = %45
  %.not40 = icmp eq i32 %3, 0
  br i1 %.not40, label %74, label %50

50:                                               ; preds = %49
  %51 = load i64, ptr %5, align 8, !tbaa !198
  %52 = load ptr, ptr %26, align 8, !tbaa !133
  %53 = getelementptr inbounds nuw i8, ptr %52, i64 216
  %54 = load ptr, ptr %53, align 8, !tbaa !134
  %55 = getelementptr inbounds nuw i8, ptr %54, i64 80
  %56 = load i32, ptr %55, align 8, !tbaa !135
  %57 = and i32 %56, 8
  %.not.i = icmp eq i32 %57, 0
  br i1 %.not.i, label %58, label %72

58:                                               ; preds = %50
  %59 = load i32, ptr %52, align 8, !tbaa !137
  %60 = icmp slt i32 %59, 772
  %.not15.i = icmp eq i32 %59, 65536
  %or.cond.i = or i1 %60, %.not15.i
  br i1 %or.cond.i, label %72, label %61

61:                                               ; preds = %58
  %62 = getelementptr inbounds nuw i8, ptr %0, i64 1288
  %63 = load i32, ptr %62, align 8, !tbaa !242
  %.not16.i = icmp eq i32 %63, 0
  br i1 %.not16.i, label %64, label %.critedge.i

64:                                               ; preds = %61
  %65 = call ptr @ssl_handshake_md(ptr noundef nonnull %0) #18
  %66 = getelementptr inbounds nuw i8, ptr %0, i64 1404
  %67 = call i32 @tls13_generate_secret(ptr noundef nonnull %0, ptr noundef %65, ptr noundef null, ptr noundef null, i64 noundef 0, ptr noundef nonnull %66) #18
  %68 = icmp eq i32 %67, 0
  br i1 %68, label %ssl_gensecret.exit, label %.critedge.i

.critedge.i:                                      ; preds = %64, %61
  %69 = call i32 @tls13_generate_handshake_secret(ptr noundef nonnull %0, ptr noundef nonnull %42, i64 noundef %51) #18
  %70 = icmp ne i32 %69, 0
  %71 = zext i1 %70 to i32
  br label %ssl_gensecret.exit

72:                                               ; preds = %58, %50
  %73 = call i32 @ssl_generate_master_secret(ptr noundef nonnull %0, ptr noundef nonnull %42, i64 noundef %51, i32 noundef 0)
  br label %ssl_gensecret.exit

74:                                               ; preds = %49
  %75 = getelementptr inbounds nuw i8, ptr %0, i64 944
  store ptr %42, ptr %75, align 8, !tbaa !86
  %76 = load i64, ptr %5, align 8, !tbaa !198
  %77 = getelementptr inbounds nuw i8, ptr %0, i64 952
  store i64 %76, ptr %77, align 8, !tbaa !87
  br label %ssl_gensecret.exit

ssl_gensecret.exit:                               ; preds = %72, %.critedge.i, %64, %74, %48, %44, %24
  %.033 = phi ptr [ null, %24 ], [ null, %44 ], [ %42, %48 ], [ null, %74 ], [ %42, %64 ], [ %42, %.critedge.i ], [ %42, %72 ]
  %.032 = phi i32 [ 0, %24 ], [ 0, %44 ], [ 0, %48 ], [ 1, %74 ], [ 0, %64 ], [ %71, %.critedge.i ], [ %73, %72 ]
  %78 = load i64, ptr %5, align 8, !tbaa !198
  call void @CRYPTO_clear_free(ptr noundef %.033, i64 noundef %78, ptr noundef nonnull @.str.2, i32 noundef 5051) #18
  call void @EVP_PKEY_CTX_free(ptr noundef %15) #18
  br label %79

79:                                               ; preds = %ssl_gensecret.exit, %8
  %.0 = phi i32 [ 0, %8 ], [ %.032, %ssl_gensecret.exit ]
  call void @llvm.lifetime.end.p0(i64 8, ptr nonnull %5) #18
  ret i32 %.0
}